target datalayout = "e-m:e-p270:32:32-p271:32:32-p272:64:64-i64:64-i128:128-f80:128-n8:16:32:64-S128"
target triple = "x86_64-pc-linux-gnu"

%"class.Ipopt::ReferencedObject.base" = type <{ ptr, i32 }>
%"class.Ipopt::CachedResults.13" = type { ptr, i32, ptr }
%"class.Ipopt::Vector" = type <{ %"class.Ipopt::TaggedObject", %"class.Ipopt::SmartPtr.43", %"class.Ipopt::CachedResults.13", i32, [4 x i8], double, i32, [4 x i8], double, i32, [4 x i8], double, i32, [4 x i8], double, i32, [4 x i8], double, i32, [4 x i8], double, i32, [4 x i8], double, i32, i8, [3 x i8] }>
%"class.Ipopt::TaggedObject" = type { %"class.Ipopt::ReferencedObject.base", %"class.Ipopt::Subject", i32, i32 }
%"class.Ipopt::Subject" = type { ptr, %"class.std::vector" }
%"class.std::vector" = type { %"struct.std::_Vector_base" }
%"struct.std::_Vector_base" = type { %"struct.std::_Vector_base<Ipopt::Observer *, std::allocator<Ipopt::Observer *>>::_Vector_impl" }
%"struct.std::_Vector_base<Ipopt::Observer *, std::allocator<Ipopt::Observer *>>::_Vector_impl" = type { %"struct.std::_Vector_base<Ipopt::Observer *, std::allocator<Ipopt::Observer *>>::_Vector_impl_data" }
%"struct.std::_Vector_base<Ipopt::Observer *, std::allocator<Ipopt::Observer *>>::_Vector_impl_data" = type { ptr, ptr, ptr }
%"class.Ipopt::SmartPtr.43" = type { ptr }
%"class.Ipopt::VectorSpace" = type { %"class.Ipopt::ReferencedObject.base", i32 }

; Function Attrs: inlinehint mustprogress nounwind uwtable
define linkonce_odr noundef nonnull align 8 dereferenceable(8) ptr @_ZSt3minIdERKT_S2_S2_(ptr noundef nonnull align 8 dereferenceable(8) %0, ptr noundef nonnull align 8 dereferenceable(8) %1) #11 comdat {
  %3 = alloca ptr, align 8
  %4 = alloca ptr, align 8
  %5 = alloca ptr, align 8
  store ptr %0, ptr %4, align 8, !tbaa !202
  store ptr %1, ptr %5, align 8, !tbaa !202
  %6 = load ptr, ptr %5, align 8, !tbaa !202
  %7 = load double, ptr %6, align 8, !tbaa !154
  %8 = load ptr, ptr %4, align 8, !tbaa !202
  %9 = load double, ptr %8, align 8, !tbaa !154
  %10 = fcmp olt double %7, %9
  br i1 %10, label %11, label %13

11:                                               ; preds = %2
  %12 = load ptr, ptr %5, align 8, !tbaa !202
  store ptr %12, ptr %3, align 8
  br label %15

13:                                               ; preds = %2
  %14 = load ptr, ptr %4, align 8, !tbaa !202
  store ptr %14, ptr %3, align 8
  br label %15

15:                                               ; preds = %13, %11
  %16 = load ptr, ptr %3, align 8
  ret ptr %16
}

; Function Attrs: mustprogress nounwind uwtable
define linkonce_odr noundef i32 @_ZNK5Ipopt11VectorSpace3DimEv(ptr noundef nonnull align 8 dereferenceable(16) %0) #4 comdat align 2 {
  %2 = alloca ptr, align 8
  store ptr %0, ptr %2, align 8, !tbaa !288
  %3 = load ptr, ptr %2, align 8
  %4 = getelementptr inbounds nuw %"class.Ipopt::VectorSpace", ptr %3, i32 0, i32 1
  %5 = load i32, ptr %4, align 4, !tbaa !289
  ret i32 %5
}

; Function Attrs: mustprogress nounwind uwtable
define linkonce_odr noundef ptr @_ZNK5Ipopt8SmartPtrIKNS_11VectorSpaceEEptEv(ptr noundef nonnull align 8 dereferenceable(8) %0) #4 comdat align 2 {
  %2 = alloca ptr, align 8
  store ptr %0, ptr %2, align 8, !tbaa !226
  %3 = load ptr, ptr %2, align 8
  %4 = getelementptr inbounds nuw %"class.Ipopt::SmartPtr.43", ptr %3, i32 0, i32 0
  %5 = load ptr, ptr %4, align 8, !tbaa !228
  ret ptr %5
}

; Function Attrs: inlinehint mustprogress uwtable
define linkonce_odr noundef double @_ZN5Ipopt3MinIdEET_S1_S1_(double noundef %0, double noundef %1) #8 comdat {
  %3 = alloca double, align 8
  %4 = alloca double, align 8
  store double %0, ptr %3, align 8, !tbaa !154
  store double %1, ptr %4, align 8, !tbaa !154
  %5 = call noundef nonnull align 8 dereferenceable(8) ptr @_ZSt3minIdERKT_S2_S2_(ptr noundef nonnull align 8 dereferenceable(8) %3, ptr noundef nonnull align 8 dereferenceable(8) %4)
  %6 = load double, ptr %5, align 8, !tbaa !154
  ret double %6
}

; Function Attrs: inlinehint mustprogress uwtable
define linkonce_odr noundef double @_ZNK5Ipopt6Vector11FracToBoundERKS0_d(ptr noundef nonnull align 8 dereferenceable(205) %0, ptr noundef nonnull align 8 dereferenceable(205) %1, double noundef %2) #8 comdat align 2 {
  %4 = alloca ptr, align 8
  %5 = alloca ptr, align 8
  %6 = alloca double, align 8
  store ptr %0, ptr %4, align 8, !tbaa !86
  store ptr %1, ptr %5, align 8, !tbaa !86
  store double %2, ptr %6, align 8, !tbaa !154
  %7 = load ptr, ptr %4, align 8
  %8 = load ptr, ptr %5, align 8, !tbaa !86
  %9 = load double, ptr %6, align 8, !tbaa !154
  %10 = load ptr, ptr %7, align 8, !tbaa !18
  %11 = getelementptr inbounds ptr, ptr %10, i64 25
  %12 = load ptr, ptr %11, align 8
  %13 = call noundef double %12(ptr noundef nonnull align 8 dereferenceable(205) %7, ptr noundef nonnull align 8 dereferenceable(205) %8, double noundef %9)
  ret double %13
}

; Function Attrs: mustprogress uwtable
define linkonce_odr void @_ZNK5Ipopt6Matrix15TransMultVectorEdRKNS_6VectorEdRS1_(ptr noundef nonnull align 8 dereferenceable(69) %0, double noundef %1, ptr noundef nonnull align 8 dereferenceable(205) %2, double noundef %3, ptr noundef nonnull align 8 dereferenceable(205) %4) #6 comdat align 2 {
  %6 = alloca ptr, align 8
  %7 = alloca double, align 8
  %8 = alloca ptr, align 8
  %9 = alloca double, align 8
  %10 = alloca ptr, align 8
  store ptr %0, ptr %6, align 8, !tbaa !127
  store double %1, ptr %7, align 8, !tbaa !154
  store ptr %2, ptr %8, align 8, !tbaa !86
  store double %3, ptr %9, align 8, !tbaa !154
  store ptr %4, ptr %10, align 8, !tbaa !86
  %11 = load ptr, ptr %6, align 8
  %12 = load double, ptr %7, align 8, !tbaa !154
  %13 = load ptr, ptr %8, align 8, !tbaa !86
  %14 = load double, ptr %9, align 8, !tbaa !154
  %15 = load ptr, ptr %10, align 8, !tbaa !86
  %16 = load ptr, ptr %11, align 8, !tbaa !18
  %17 = getelementptr inbounds ptr, ptr %16, i64 5
  %18 = load ptr, ptr %17, align 8
  call void %18(ptr noundef nonnull align 8 dereferenceable(69) %11, double noundef %12, ptr noundef nonnull align 8 dereferenceable(205) %13, double noundef %14, ptr noundef nonnull align 8 dereferenceable(205) %15)
  ret void
}

; Function Attrs: inlinehint mustprogress uwtable
define linkonce_odr noundef i32 @_ZNK5Ipopt6Vector3DimEv(ptr noundef nonnull align 8 dereferenceable(205) %0) #8 comdat align 2 {
  %2 = alloca ptr, align 8
  store ptr %0, ptr %2, align 8, !tbaa !86
  %3 = load ptr, ptr %2, align 8
  %4 = getelementptr inbounds nuw %"class.Ipopt::Vector", ptr %3, i32 0, i32 1
  %5 = call noundef ptr @_ZNK5Ipopt8SmartPtrIKNS_11VectorSpaceEEptEv(ptr noundef nonnull align 8 dereferenceable(8) %4)
  %6 = call noundef i32 @_ZNK5Ipopt11VectorSpace3DimEv(ptr noundef nonnull align 8 dereferenceable(16) %5)
  ret i32 %6
}

; Function Attrs: mustprogress uwtable
define noundef double @_ZN5Ipopt25IpoptCalculatedQuantities15CalcFracToBoundERKNS_6VectorERS1_RKNS_6MatrixES3_S4_S7_S3_d(ptr noundef nonnull align 8 dereferenceable(2185) %0, ptr noundef nonnull align 8 dereferenceable(205) %1, ptr noundef nonnull align 8 dereferenceable(205) %2, ptr noundef nonnull align 8 dereferenceable(69) %3, ptr noundef nonnull align 8 dereferenceable(205) %4, ptr noundef nonnull align 8 dereferenceable(205) %5, ptr noundef nonnull align 8 dereferenceable(69) %6, ptr noundef nonnull align 8 dereferenceable(205) %7, double noundef %8) #6 align 2 {
  %10 = alloca ptr, align 8
  %11 = alloca ptr, align 8
  %12 = alloca ptr, align 8
  %13 = alloca ptr, align 8
  %14 = alloca ptr, align 8
  %15 = alloca ptr, align 8
  %16 = alloca ptr, align 8
  %17 = alloca ptr, align 8
  %18 = alloca double, align 8
  %19 = alloca double, align 8
  %20 = alloca double, align 8
  store ptr %0, ptr %10, align 8, !tbaa !12
  store ptr %1, ptr %11, align 8, !tbaa !86
  store ptr %2, ptr %12, align 8, !tbaa !86
  store ptr %3, ptr %13, align 8, !tbaa !127
  store ptr %4, ptr %14, align 8, !tbaa !86
  store ptr %5, ptr %15, align 8, !tbaa !86
  store ptr %6, ptr %16, align 8, !tbaa !127
  store ptr %7, ptr %17, align 8, !tbaa !86
  store double %8, ptr %18, align 8, !tbaa !154
  call void @llvm.lifetime.start.p0(i64 8, ptr %19) #3
  store double 1.000000e+00, ptr %19, align 8, !tbaa !154
  call void @llvm.lifetime.start.p0(i64 8, ptr %20) #3
  store double 1.000000e+00, ptr %20, align 8, !tbaa !154
  %21 = load ptr, ptr %11, align 8, !tbaa !86
  %22 = call noundef i32 @_ZNK5Ipopt6Vector3DimEv(ptr noundef nonnull align 8 dereferenceable(205) %21)
  %23 = icmp sgt i32 %22, 0
  br i1 %23, label %24, label %32

24:                                               ; preds = %9
  %25 = load ptr, ptr %13, align 8, !tbaa !127
  %26 = load ptr, ptr %17, align 8, !tbaa !86
  %27 = load ptr, ptr %12, align 8, !tbaa !86
  call void @_ZNK5Ipopt6Matrix15TransMultVectorEdRKNS_6VectorEdRS1_(ptr noundef nonnull align 8 dereferenceable(69) %25, double noundef 1.000000e+00, ptr noundef nonnull align 8 dereferenceable(205) %26, double noundef 0.000000e+00, ptr noundef nonnull align 8 dereferenceable(205) %27)
  %28 = load ptr, ptr %11, align 8, !tbaa !86
  %29 = load ptr, ptr %12, align 8, !tbaa !86
  %30 = load double, ptr %18, align 8, !tbaa !154
  %31 = call noundef double @_ZNK5Ipopt6Vector11FracToBoundERKS0_d(ptr noundef nonnull align 8 dereferenceable(205) %28, ptr noundef nonnull align 8 dereferenceable(205) %29, double noundef %30)
  store double %31, ptr %19, align 8, !tbaa !154
  br label %32

32:                                               ; preds = %24, %9
  %33 = load ptr, ptr %14, align 8, !tbaa !86
  %34 = call noundef i32 @_ZNK5Ipopt6Vector3DimEv(ptr noundef nonnull align 8 dereferenceable(205) %33)
  %35 = icmp sgt i32 %34, 0
  br i1 %35, label %36, label %44

36:                                               ; preds = %32
  %37 = load ptr, ptr %16, align 8, !tbaa !127
  %38 = load ptr, ptr %17, align 8, !tbaa !86
  %39 = load ptr, ptr %15, align 8, !tbaa !86
  call void @_ZNK5Ipopt6Matrix15TransMultVectorEdRKNS_6VectorEdRS1_(ptr noundef nonnull align 8 dereferenceable(69) %37, double noundef -1.000000e+00, ptr noundef nonnull align 8 dereferenceable(205) %38, double noundef 0.000000e+00, ptr noundef nonnull align 8 dereferenceable(205) %39)
  %40 = load ptr, ptr %14, align 8, !tbaa !86
  %41 = load ptr, ptr %15, align 8, !tbaa !86
  %42 = load double, ptr %18, align 8, !tbaa !154
  %43 = call noundef double @_ZNK5Ipopt6Vector11FracToBoundERKS0_d(ptr noundef nonnull align 8 dereferenceable(205) %40, ptr noundef nonnull align 8 dereferenceable(205) %41, double noundef %42)
  store double %43, ptr %20, align 8, !tbaa !154
  br label %44

44:                                               ; preds = %36, %32
  %45 = load double, ptr %19, align 8, !tbaa !154
  %46 = load double, ptr %20, align 8, !tbaa !154
  %47 = call noundef double @_ZN5Ipopt3MinIdEET_S1_S1_(double noundef %45, double noundef %46)
  call void @llvm.lifetime.end.p0(i64 8, ptr %20) #3
  call void @llvm.lifetime.end.p0(i64 8, ptr %19) #3
  ret double %47
}