; Function Attrs: mustprogress uwtable
define noundef double @_ZN5Ipopt25IpoptCalculatedQuantities15CalcFracToBoundERKNS_6VectorERS1_RKNS_6MatrixES3_S4_S7_S3_d(ptr noundef nonnull readnone align 8 captures(none) dereferenceable(2185) %0, ptr noundef nonnull align 8 dereferenceable(205) %1, ptr noundef nonnull align 8 dereferenceable(205) %2, ptr noundef nonnull align 8 dereferenceable(69) %3, ptr noundef nonnull align 8 dereferenceable(205) %4, ptr noundef nonnull align 8 dereferenceable(205) %5, ptr noundef nonnull align 8 dereferenceable(69) %6, ptr noundef nonnull align 8 dereferenceable(205) %7, double noundef %8) local_unnamed_addr #6 align 2 {
  %10 = getelementptr inbounds nuw i8, ptr %1, i64 56
  %11 = load ptr, ptr %10, align 8, !tbaa !105
  %12 = getelementptr inbounds nuw i8, ptr %11, i64 12
  %13 = load i32, ptr %12, align 4, !tbaa !169
  %14 = icmp sgt i32 %13, 0
  br i1 %14, label %15, label %23

15:                                               ; preds = %9
  %16 = load ptr, ptr %3, align 8, !tbaa !16
  %17 = getelementptr inbounds nuw i8, ptr %16, i64 40
  %18 = load ptr, ptr %17, align 8
  tail call void %18(ptr noundef nonnull align 8 dereferenceable(69) %3, double noundef 1.000000e+00, ptr noundef nonnull align 8 dereferenceable(205) %7, double noundef 0.000000e+00, ptr noundef nonnull align 8 dereferenceable(205) %2)
  %19 = load ptr, ptr %1, align 8, !tbaa !16
  %20 = getelementptr inbounds nuw i8, ptr %19, i64 200
  %21 = load ptr, ptr %20, align 8
  %22 = tail call noundef double %21(ptr noundef nonnull align 8 dereferenceable(205) %1, ptr noundef nonnull align 8 dereferenceable(205) %2, double noundef %8)
  br label %23

23:                                               ; preds = %15, %9
  %.016 = phi double [ %22, %15 ], [ 1.000000e+00, %9 ]
  %24 = getelementptr inbounds nuw i8, ptr %4, i64 56
  %25 = load ptr, ptr %24, align 8, !tbaa !105
  %26 = getelementptr inbounds nuw i8, ptr %25, i64 12
  %27 = load i32, ptr %26, align 4, !tbaa !169
  %28 = icmp sgt i32 %27, 0
  br i1 %28, label %29, label %37

29:                                               ; preds = %23
  %30 = load ptr, ptr %6, align 8, !tbaa !16
  %31 = getelementptr inbounds nuw i8, ptr %30, i64 40
  %32 = load ptr, ptr %31, align 8
  tail call void %32(ptr noundef nonnull align 8 dereferenceable(69) %6, double noundef -1.000000e+00, ptr noundef nonnull align 8 dereferenceable(205) %7, double noundef 0.000000e+00, ptr noundef nonnull align 8 dereferenceable(205) %5)
  %33 = load ptr, ptr %4, align 8, !tbaa !16
  %34 = getelementptr inbounds nuw i8, ptr %33, i64 200
  %35 = load ptr, ptr %34, align 8
  %36 = tail call noundef double %35(ptr noundef nonnull align 8 dereferenceable(205) %4, ptr noundef nonnull align 8 dereferenceable(205) %5, double noundef %8)
  br label %37

37:                                               ; preds = %29, %23
  %.0 = phi double [ %36, %29 ], [ 1.000000e+00, %23 ]
  %38 = fcmp olt double %.0, %.016
  %.sroa.speculated.i = select i1 %38, double %.0, double %.016
  ret double %.sroa.speculated.i
}